(dp0
S'Mapgen Neighborhood radius'
p1
I1
sS'Health Loss Rate'
p2
F1e-05
sS'Show Indicators'
p3
I00
sS'Wraparound Tracking'
p4
I01
sS'Show Help'
p5
I01
sS'Scaling Mutation Rate'
p6
I0
sS'Line Memory'
p7
I40
sS'Tree Thickness'
p8
I1
sS'Random Tile Density'
p9
F0.3
sS'Show Vectors'
p10
I00
sS'Sting Repulsion'
p11
I300
sS'Overpopulation Limit'
p12
I20
sS'Species Visualization Style'
p13
I4
sS'Memory Strength'
p14
I1
sS'Show Tiles'
p15
I00
sS'Mapgen iterations'
p16
I20
sS'Invert Mutation Rate'
p17
I0
sS'Additive Mutation Rate'
p18
I1
sS'Bee Style'
p19
I2
sS'Creature Mode'
p20
I0
sS'Show Names'
p21
I00
sS'Eye Mutation Range'
p22
I5
sS'Sticky Walls'
p23
I1
sS'Tree Update Time'
p24
I1
sS'Juiciness'
p25
I0
sS'Slowness Penalty'
p26
F0.03
sS'Brain Activation'
p27
I3
sS'Tile Minimum Neighbors'
p28
I5
sS'Health Gain'
p29
I1
sS'Gravity'
p30
F0.0006
sS'Maximum Health'
p31
I1
sS'Mutation Chances'
p32
F0.9
sS'Show Background Markers'
p33
I00
sS'Show Text'
p34
I00
sS'Congeal Thoroughness'
p35
F0.4
sS'Show Lines'
p36
I00
sS'Generate Random Map'
p37
I00
sS'Tree Vertical Spacing'
p38
I5
sS'Offspring Mutation Rate'
p39
I1
sS'Show Panel Outlines'
p40
I00
sS'Brain Bias'
p41
I1
sS'Automatic Bee Evasion'
p42
I0
sS'Sensitivity To Player Position'
p43
I10
sS'Show Sides'
p44
I00
sS'Tree Horizontal Spacing'
p45
I5
sS'Cost of Jumping'
p46
F0.2
sS'Show Eyes'
p47
I00
sS'Wall Acid'
p48
F0.01
sS"'Too Slow' Threshold"
p49
F0.05
sS'Swarming Peer Pressure'
p50
I0
sS'Show Family Tree'
p51
I00
sS'Tree Color Variation'
p52
I50
sS'Tile Maximum Neighbors'
p53
I6000
sS'Speed Payoff'
p54
F0.1
s.