(dp0
S'Mapgen Neighborhood radius'
p1
I1
sS'Health Loss Rate'
p2
F0.0001
sS'Wraparound Tracking'
p3
I00
sS'Show Help'
p4
I00
sS'Scaling Mutation Rate'
p5
I0
sS'Tree Thickness'
p6
I1
sS'Random Tile Density'
p7
F0.25
sS'Sting Repulsion'
p8
I200
sS'Overpopulation Limit'
p9
I60
sS'Species Visualization Style'
p10
I4
sS'Memory Strength'
p11
I1
sS'Mapgen iterations'
p12
I20
sS'Invert Mutation Rate'
p13
I0
sS'Additive Mutation Rate'
p14
I1
sS'Bee Style'
p15
I1
sS'Creature Mode'
p16
I0
sS'Show Names'
p17
I00
sS'Eye Mutation Range'
p18
I5
sS'Sticky Walls'
p19
I0
sS'Tree Update Time'
p20
I20
sS'Juiciness'
p21
I0
sS'Slowness Penalty'
p22
F0.1
sS'Brain Activation'
p23
I3
sS'Tile Minimum Neighbors'
p24
I5
sS'Health Gain'
p25
I0
sS'Gravity'
p26
F0.0006
sS'Maximum Health'
p27
I1
sS'Mutation Chances'
p28
I1
sS'Congeal Thoroughness'
p29
F0.4
sS'Generate Random Map'
p30
I0
sS'Tree Vertical Spacing'
p31
I5
sS'Offspring Mutation Rate'
p32
I1
sS'Brain Bias'
p33
I1
sS'Automatic Bee Evasion'
p34
I0
sS'Sensitivity To Player Position'
p35
I10
sS'Tree Horizontal Spacing'
p36
I5
sS'Cost of Jumping'
p37
I0
sS'Show Eyes'
p38
I00
sS'Wall Acid'
p39
F0.1
sS"'Too Slow' Threshold"
p40
F0.1
sS'Swarming Peer Pressure'
p41
I0
sS'Tree Color Variation'
p42
I50
sS'Tile Maximum Neighbors'
p43
I6000
sS'Speed Payoff'
p44
F0.7
s.