(dp0
S'Mapgen Neighborhood radius'
p1
I1
sS'Health Loss Rate'
p2
F0.0001
sS'Wraparound Tracking'
p3
I01
sS'Show Help'
p4
I00
sS'Scaling Mutation Rate'
p5
I0
sS'Tree Thickness'
p6
I1
sS'Random Tile Density'
p7
F0.25
sS'Sting Repulsion'
p8
I200
sS'Overpopulation Limit'
p9
I60
sS'Species Visualization Style'
p10
I4
sS'Memory Strength'
p11
I1
sS'Mapgen iterations'
p12
I20
sS'Invert Mutation Rate'
p13
I0
sS'Additive Mutation Rate'
p14
I1
sS'Bee Style'
p15
I1
sS'Creature Mode'
p16
I0
sS'Show Names'
p17
I00
sS'Eye Mutation Range'
p18
I5
sS'Sticky Walls'
p19
I0
sS'Juiciness'
p20
I0
sS'Slowness Penalty'
p21
F0.1
sS'Brain Activation'
p22
I3
sS'Tile Minimum Neighbors'
p23
I5
sS'Health Gain'
p24
I0
sS'Gravity'
p25
F0.0006
sS'Maximum Health'
p26
I1
sS'Mutation Chances'
p27
I1
sS'Congeal Thoroughness'
p28
F0.4
sS'Generate Random Map'
p29
I0
sS'Tree Vertical Spacing'
p30
I5
sS'Offspring Mutation Rate'
p31
I1
sS'Brain Bias'
p32
I1
sS'Automatic Bee Evasion'
p33
I0
sS'Sensitivity To Player Position'
p34
I10
sS'Tree Horizontal Spacing'
p35
I5
sS'Cost of Jumping'
p36
I0
sS'Show Eyes'
p37
I00
sS'Wall Acid'
p38
F0.1
sS"'Too Slow' Threshold"
p39
F0.1
sS'Swarming Peer Pressure'
p40
I0
sS'Tree Color Variation'
p41
I50
sS'Tile Maximum Neighbors'
p42
I6000
sS'Speed Payoff'
p43
F0.7
s.