(dp0
S'Mapgen Neighborhood radius'
p1
I1
sS'Health Loss Rate'
p2
F0.0001
sS'Wraparound Tracking'
p3
I01
sS'Show Help'
p4
I00
sS'Scaling Mutation Rate'
p5
I0
sS'Tree Thickness'
p6
I1
sS'Random Tile Density'
p7
F0.25
sS'Sting Repulsion'
p8
I200
sS'Overpopulation Limit'
p9
I60
sS'Species Visualization Style'
p10
I3
sS'Memory Strength'
p11
I1
sS'Mapgen iterations'
p12
I20
sS'Invert Mutation Rate'
p13
I0
sS'Additive Mutation Rate'
p14
I1
sS'Bee Style'
p15
I1
sS'Creature Mode'
p16
I0
sS'Show Names'
p17
I00
sS'Congeal CONGEAL_THOROUGHNESS'
p18
I1
sS'Eye Mutation Range'
p19
I5
sS'Sticky Walls'
p20
I0
sS'Juiciness'
p21
I0
sS'Slowness Penalty'
p22
F0.3
sS'Tile Minimum Neighbors'
p23
I5
sS'Health Gain'
p24
F0.3
sS'Gravity'
p25
F0.0006
sS'Maximum Health'
p26
I1
sS'Mutation Chances'
p27
I1
sS'Congeal Thoroughness'
p28
I1
sS'Generate Random Map'
p29
I0
sS'Tree Vertical Spacing'
p30
I1
sS'Offspring Mutation Rate'
p31
I1
sS'Brain Bias'
p32
F0.01
sS'Automatic Bee Evasion'
p33
I0
sS'Sensitivity To Player Position'
p34
I2
sS'Tree Horizontal Spacing'
p35
I1
sS'Cost of Jumping'
p36
I0
sS'Show Eyes'
p37
I00
sS'Wall Acid'
p38
F0.3
sS"'Too Slow' Threshold"
p39
F0.1
sS'Swarming Peer Pressure'
p40
I0
sS'Tree Color Variation'
p41
I30
sS'Tile Maximum Neighbors'
p42
I6000
sS'Speed Payoff'
p43
I1
s.